(dp0
S'METTS MARK'
p1
(dp2
S'poi'
p3
I00
sS'deferred_income'
p4
S'NaN'
p5
sS'bonus'
p6
I600000
sS'total_stock_value'
p7
I585062
sS'salary'
p8
I365788
sS'exercised_stock_options'
p9
g5
ssS'BAXTER JOHN C'
p10
(dp11
g3
I00
sg4
I-1386055
sg6
I1200000
sg7
I10623258
sg8
I267102
sg9
I6680544
ssS'ELLIOTT STEVEN'
p12
(dp13
g3
I00
sg4
I-400729
sg6
I350000
sg7
I6678735
sg8
I170941
sg9
I4890344
ssS'CORDES WILLIAM R'
p14
(dp15
g3
I00
sg4
g5
sg6
g5
sg7
I1038185
sg8
g5
sg9
I651850
ssS'HANNON KEVIN P'
p16
(dp17
g3
I01
sg4
I-3117011
sg6
I1500000
sg7
I6391065
sg8
I243293
sg9
I5538001
ssS'MORDAUNT KRISTINA M'
p18
(dp19
g3
I00
sg4
g5
sg6
I325000
sg7
I208510
sg8
I267093
sg9
g5
ssS'MEYER ROCKFORD G'
p20
(dp21
g3
I00
sg4
g5
sg6
g5
sg7
I955873
sg8
g5
sg9
I493489
ssS'MCMAHON JEFFREY'
p22
(dp23
g3
I00
sg4
g5
sg6
I2600000
sg7
I1662855
sg8
I370448
sg9
I1104054
ssS'HORTON STANLEY C'
p24
(dp25
g3
I00
sg4
g5
sg6
g5
sg7
I7256648
sg8
g5
sg9
I5210569
ssS'PIPER GREGORY F'
p26
(dp27
g3
I00
sg4
I-33333
sg6
I400000
sg7
I880290
sg8
I197091
sg9
I880290
ssS'HUMPHREY GENE E'
p28
(dp29
g3
I00
sg4
g5
sg6
g5
sg7
I2282768
sg8
I130724
sg9
I2282768
ssS'UMANOFF ADAM S'
p30
(dp31
g3
I00
sg4
g5
sg6
I788750
sg7
g5
sg8
I288589
sg9
g5
ssS'BLACHMAN JEREMY M'
p32
(dp33
g3
I00
sg4
g5
sg6
I850000
sg7
I954354
sg8
I248546
sg9
I765313
ssS'SUNDE MARTIN'
p34
(dp35
g3
I00
sg4
g5
sg6
I700000
sg7
I698920
sg8
I257486
sg9
g5
ssS'GIBBS DANA R'
p36
(dp37
g3
I00
sg4
g5
sg6
g5
sg7
I2218275
sg8
g5
sg9
I2218275
ssS'LOWRY CHARLES P'
p38
(dp39
g3
I00
sg4
g5
sg6
g5
sg7
I372205
sg8
g5
sg9
I372205
ssS'COLWELL WESLEY'
p40
(dp41
g3
I01
sg4
I-144062
sg6
I1200000
sg7
I698242
sg8
I288542
sg9
g5
ssS'MULLER MARK S'
p42
(dp43
g3
I00
sg4
I-719000
sg6
I1100000
sg7
I1416848
sg8
I251654
sg9
I1056320
ssS'JACKSON CHARLENE R'
p44
(dp45
g3
I00
sg4
g5
sg6
I250000
sg7
I725735
sg8
I288558
sg9
I185063
ssS'WESTFAHL RICHARD K'
p46
(dp47
g3
I00
sg4
I-10800
sg6
g5
sg7
I384930
sg8
I63744
sg9
g5
ssS'WALTERS GARETH W'
p48
(dp49
g3
I00
sg4
g5
sg6
g5
sg7
I1030329
sg8
g5
sg9
I1030329
ssS'WALLS JR ROBERT H'
p50
(dp51
g3
I00
sg4
g5
sg6
I850000
sg7
I5898997
sg8
I357091
sg9
I4346544
ssS'KITCHEN LOUISE'
p52
(dp53
g3
I00
sg4
g5
sg6
I3100000
sg7
I547143
sg8
I271442
sg9
I81042
ssS'CHAN RONNIE'
p54
(dp55
g3
I00
sg4
I-98784
sg6
g5
sg7
g5
sg8
g5
sg9
g5
ssS'BELFER ROBERT'
p56
(dp57
g3
I00
sg4
g5
sg6
g5
sg7
I-44093
sg8
g5
sg9
I3285
ssS'SHANKMAN JEFFREY A'
p58
(dp59
g3
I00
sg4
g5
sg6
I2000000
sg7
I2072035
sg8
I304110
sg9
I1441898
ssS'WODRASKA JOHN'
p60
(dp61
g3
I00
sg4
g5
sg6
g5
sg7
g5
sg8
g5
sg9
g5
ssS'BERGSIEKER RICHARD P'
p62
(dp63
g3
I00
sg4
I-485813
sg6
I250000
sg7
I659249
sg8
I187922
sg9
g5
ssS'URQUHART JOHN A'
p64
(dp65
g3
I00
sg4
I-36666
sg6
g5
sg7
g5
sg8
g5
sg9
g5
ssS'BIBI PHILIPPE A'
p66
(dp67
g3
I00
sg4
g5
sg6
I1000000
sg7
I1843816
sg8
I213625
sg9
I1465734
ssS'RIEKER PAULA H'
p68
(dp69
g3
I01
sg4
I-100000
sg6
I700000
sg7
I1918887
sg8
I249201
sg9
I1635238
ssS'WHALEY DAVID A'
p70
(dp71
g3
I00
sg4
g5
sg6
g5
sg7
I98718
sg8
g5
sg9
I98718
ssS'BECK SALLY W'
p72
(dp73
g3
I00
sg4
g5
sg6
I700000
sg7
I126027
sg8
I231330
sg9
g5
ssS'HAUG DAVID L'
p74
(dp75
g3
I00
sg4
g5
sg6
g5
sg7
I2217299
sg8
g5
sg9
g5
ssS'ECHOLS JOHN B'
p76
(dp77
g3
I00
sg4
g5
sg6
I200000
sg7
I1008941
sg8
I182245
sg9
I601438
ssS'MENDELSOHN JOHN'
p78
(dp79
g3
I00
sg4
I-103750
sg6
g5
sg7
g5
sg8
g5
sg9
g5
ssS'HICKERSON GARY J'
p80
(dp81
g3
I00
sg4
g5
sg6
I1700000
sg7
I441096
sg8
I211788
sg9
g5
ssS'CLINE KENNETH W'
p82
(dp83
g3
I00
sg4
g5
sg6
g5
sg7
I189518
sg8
g5
sg9
g5
ssS'LEWIS RICHARD'
p84
(dp85
g3
I00
sg4
g5
sg6
g5
sg7
I850477
sg8
g5
sg9
I850477
ssS'HAYES ROBERT E'
p86
(dp87
g3
I00
sg4
g5
sg6
g5
sg7
I151418
sg8
g5
sg9
g5
ssS'MCCARTY DANNY J'
p88
(dp89
g3
I00
sg4
g5
sg6
g5
sg7
I758931
sg8
g5
sg9
I664375
ssS'KOPPER MICHAEL J'
p90
(dp91
g3
I01
sg4
g5
sg6
I800000
sg7
I985032
sg8
I224305
sg9
g5
ssS'LEFF DANIEL P'
p92
(dp93
g3
I00
sg4
g5
sg6
I1000000
sg7
I360528
sg8
I273746
sg9
g5
ssS'LAVORATO JOHN J'
p94
(dp95
g3
I00
sg4
g5
sg6
I8000000
sg7
I5167144
sg8
I339288
sg9
I4158995
ssS'BERBERIAN DAVID'
p96
(dp97
g3
I00
sg4
g5
sg6
g5
sg7
I2493616
sg8
I216582
sg9
I1624396
ssS'DETMERING TIMOTHY J'
p98
(dp99
g3
I00
sg4
I-775241
sg6
I425000
sg7
I2027865
sg8
I210500
sg9
I2027865
ssS'WAKEHAM JOHN'
p100
(dp101
g3
I00
sg4
g5
sg6
g5
sg7
g5
sg8
g5
sg9
g5
ssS'POWERS WILLIAM'
p102
(dp103
g3
I00
sg4
I-17500
sg6
g5
sg7
g5
sg8
g5
sg9
g5
ssS'GOLD JOSEPH'
p104
(dp105
g3
I00
sg4
g5
sg6
I750000
sg7
I877611
sg8
I272880
sg9
I436515
ssS'BANNANTINE JAMES M'
p106
(dp107
g3
I00
sg4
I-5104
sg6
g5
sg7
I5243487
sg8
I477
sg9
I4046157
ssS'DUNCAN JOHN H'
p108
(dp109
g3
I00
sg4
I-25000
sg6
g5
sg7
I371750
sg8
g5
sg9
I371750
ssS'SHAPIRO RICHARD S'
p110
(dp111
g3
I00
sg4
g5
sg6
I650000
sg7
I987001
sg8
I269076
sg9
I607837
ssS'SHERRIFF JOHN R'
p112
(dp113
g3
I00
sg4
g5
sg6
I1500000
sg7
I3128982
sg8
I428780
sg9
I1835558
ssS'SHELBY REX'
p114
(dp115
g3
I01
sg4
I-4167
sg6
I200000
sg7
I2493616
sg8
I211844
sg9
I1624396
ssS'LEMAISTRE CHARLES'
p116
(dp117
g3
I00
sg4
I-25000
sg6
g5
sg7
I412878
sg8
g5
sg9
I412878
ssS'DEFFNER JOSEPH M'
p118
(dp119
g3
I00
sg4
g5
sg6
I600000
sg7
I159211
sg8
I206121
sg9
I17378
ssS'KISHKILL JOSEPH G'
p120
(dp121
g3
I00
sg4
I-51042
sg6
g5
sg7
I1034346
sg8
I174246
sg9
g5
ssS'WHALLEY LAWRENCE G'
p122
(dp123
g3
I00
sg4
g5
sg6
I3000000
sg7
I6079137
sg8
I510364
sg9
I3282960
ssS'MCCONNELL MICHAEL S'
p124
(dp125
g3
I00
sg4
g5
sg6
I1100000
sg7
I3101279
sg8
I365038
sg9
I1623010
ssS'PIRO JIM'
p126
(dp127
g3
I00
sg4
g5
sg6
g5
sg7
I47304
sg8
g5
sg9
g5
ssS'DELAINEY DAVID W'
p128
(dp129
g3
I01
sg4
g5
sg6
I3000000
sg7
I3614261
sg8
I365163
sg9
I2291113
ssS'SULLIVAN-SHAKLOVITZ COLLEEN'
p130
(dp131
g3
I00
sg4
g5
sg6
I100000
sg7
I1362375
sg8
I162779
sg9
I1362375
ssS'WROBEL BRUCE'
p132
(dp133
g3
I00
sg4
g5
sg6
g5
sg7
I139130
sg8
g5
sg9
I139130
ssS'LINDHOLM TOD A'
p134
(dp135
g3
I00
sg4
g5
sg6
I200000
sg7
I3064208
sg8
I236457
sg9
I2549361
ssS'MEYER JEROME J'
p136
(dp137
g3
I00
sg4
I-38346
sg6
g5
sg7
g5
sg8
g5
sg9
g5
ssS'LAY KENNETH L'
p138
(dp139
g3
I01
sg4
I-300000
sg6
I7000000
sg7
I49110078
sg8
I1072321
sg9
I34348384
ssS'BUTTS ROBERT H'
p140
(dp141
g3
I00
sg4
I-75000
sg6
I750000
sg7
I417619
sg8
I261516
sg9
g5
ssS'OLSON CINDY K'
p142
(dp143
g3
I00
sg4
g5
sg6
I750000
sg7
I2606763
sg8
I329078
sg9
I1637034
ssS'MCDONALD REBECCA'
p144
(dp145
g3
I00
sg4
g5
sg6
g5
sg7
I1691366
sg8
g5
sg9
I757301
ssS'CUMBERLAND MICHAEL S'
p146
(dp147
g3
I00
sg4
g5
sg6
I325000
sg7
I207940
sg8
I184899
sg9
g5
ssS'GAHN ROBERT S'
p148
(dp149
g3
I00
sg4
I-1042
sg6
I509870
sg7
I318607
sg8
I192008
sg9
I83237
ssS'MCCLELLAN GEORGE'
p150
(dp151
g3
I00
sg4
I-125000
sg6
I900000
sg7
I947861
sg8
I263413
sg9
I506765
ssS'HERMANN ROBERT J'
p152
(dp153
g3
I00
sg4
I-280000
sg6
I700000
sg7
I668132
sg8
I262663
sg9
I187500
ssS'SCRIMSHAW MATTHEW'
p154
(dp155
g3
I00
sg4
g5
sg6
g5
sg7
I759557
sg8
g5
sg9
I759557
ssS'GATHMANN WILLIAM D'
p156
(dp157
g3
I00
sg4
g5
sg6
g5
sg7
I1945360
sg8
g5
sg9
I1753766
ssS'HAEDICKE MARK E'
p158
(dp159
g3
I00
sg4
I-934484
sg6
I1150000
sg7
I803094
sg8
I374125
sg9
I608750
ssS'BOWEN JR RAYMOND M'
p160
(dp161
g3
I01
sg4
I-833
sg6
I1350000
sg7
I252055
sg8
I278601
sg9
g5
ssS'GILLIS JOHN'
p162
(dp163
g3
I00
sg4
g5
sg6
g5
sg7
I85641
sg8
g5
sg9
I9803
ssS'FITZGERALD JAY L'
p164
(dp165
g3
I00
sg4
g5
sg6
I350000
sg7
I1621236
sg8
I199157
sg9
I664461
ssS'MORAN MICHAEL P'
p166
(dp167
g3
I00
sg4
g5
sg6
g5
sg7
I221141
sg8
g5
sg9
I59539
ssS'REDMOND BRIAN L'
p168
(dp169
g3
I00
sg4
g5
sg6
g5
sg7
I7890324
sg8
I96840
sg9
I7509039
ssS'BAZELIDES PHILIP J'
p170
(dp171
g3
I00
sg4
g5
sg6
g5
sg7
I1599641
sg8
I80818
sg9
I1599641
ssS'BELDEN TIMOTHY N'
p172
(dp173
g3
I01
sg4
I-2334434
sg6
I5249999
sg7
I1110705
sg8
I213999
sg9
I953136
ssS'DURAN WILLIAM D'
p174
(dp175
g3
I00
sg4
g5
sg6
I750000
sg7
I1640910
sg8
I210692
sg9
I1451869
ssS'THORN TERENCE H'
p176
(dp177
g3
I00
sg4
g5
sg6
g5
sg7
I4817796
sg8
I222093
sg9
I4452476
ssS'FASTOW ANDREW S'
p178
(dp179
g3
I01
sg4
I-1386055
sg6
I1300000
sg7
I1794412
sg8
I440698
sg9
g5
ssS'FOY JOE'
p180
(dp181
g3
I00
sg4
g5
sg6
g5
sg7
I343434
sg8
g5
sg9
I343434
ssS'CALGER CHRISTOPHER F'
p182
(dp183
g3
I01
sg4
I-262500
sg6
I1250000
sg7
I126027
sg8
I240189
sg9
g5
ssS'RICE KENNETH D'
p184
(dp185
g3
I01
sg4
I-3504386
sg6
I1750000
sg7
I22542539
sg8
I420636
sg9
I19794175
ssS'KAMINSKI WINCENTY J'
p186
(dp187
g3
I00
sg4
g5
sg6
I400000
sg7
I976037
sg8
I275101
sg9
I850010
ssS'COX DAVID'
p188
(dp189
g3
I00
sg4
I-41250
sg6
I800000
sg7
I495633
sg8
I314288
sg9
I117551
ssS'OVERDYKE JR JERE C'
p190
(dp191
g3
I00
sg4
g5
sg6
g5
sg7
I7307594
sg8
I94941
sg9
I5266578
ssS'PEREIRA PAULO V. FERRAZ'
p192
(dp193
g3
I00
sg4
I-101250
sg6
g5
sg7
g5
sg8
g5
sg9
g5
ssS'STABLER FRANK'
p194
(dp195
g3
I00
sg4
g5
sg6
I500000
sg7
I511734
sg8
I239502
sg9
g5
ssS'SKILLING JEFFREY K'
p196
(dp197
g3
I01
sg4
g5
sg6
I5600000
sg7
I26093672
sg8
I1111258
sg9
I19250000
ssS'BLAKE JR. NORMAN P'
p198
(dp199
g3
I00
sg4
I-113784
sg6
g5
sg7
g5
sg8
g5
sg9
g5
ssS'SHERRICK JEFFREY B'
p200
(dp201
g3
I00
sg4
g5
sg6
g5
sg7
I1832468
sg8
g5
sg9
I1426469
ssS'PRENTICE JAMES'
p202
(dp203
g3
I00
sg4
g5
sg6
g5
sg7
I1095040
sg8
g5
sg9
I886231
ssS'GRAY RODNEY'
p204
(dp205
g3
I00
sg4
g5
sg6
g5
sg7
g5
sg8
I6615
sg9
g5
ssS'PICKERING MARK R'
p206
(dp207
g3
I00
sg4
g5
sg6
I300000
sg7
I28798
sg8
I655037
sg9
I28798
ssS'NOLES JAMES L'
p208
(dp209
g3
I00
sg4
g5
sg6
g5
sg7
I368705
sg8
g5
sg9
g5
ssS'KEAN STEVEN J'
p210
(dp211
g3
I00
sg4
g5
sg6
I1000000
sg7
I6153642
sg8
I404338
sg9
I2022048
ssS'FOWLER PEGGY'
p212
(dp213
g3
I00
sg4
g5
sg6
g5
sg7
I1884748
sg8
g5
sg9
I1324578
ssS'WASAFF GEORGE'
p214
(dp215
g3
I00
sg4
I-583325
sg6
I325000
sg7
I2056427
sg8
I259996
sg9
I1668260
ssS'WHITE JR THOMAS E'
p216
(dp217
g3
I00
sg4
g5
sg6
I450000
sg7
I15144123
sg8
I317543
sg9
I1297049
ssS'CHRISTODOULOU DIOMEDES'
p218
(dp219
g3
I00
sg4
g5
sg6
g5
sg7
I6077885
sg8
g5
sg9
I5127155
ssS'ALLEN PHILLIP K'
p220
(dp221
g3
I00
sg4
I-3081055
sg6
I4175000
sg7
I1729541
sg8
I201955
sg9
I1729541
ssS'SHARP VICTORIA T'
p222
(dp223
g3
I00
sg4
g5
sg6
I600000
sg7
I494136
sg8
I248146
sg9
I281073
ssS'JAEDICKE ROBERT'
p224
(dp225
g3
I00
sg4
I-25000
sg6
g5
sg7
I431750
sg8
g5
sg9
I431750
ssS'WINOKUR JR. HERBERT S'
p226
(dp227
g3
I00
sg4
I-25000
sg6
g5
sg7
g5
sg8
g5
sg9
g5
ssS'BROWN MICHAEL'
p228
(dp229
g3
I00
sg4
g5
sg6
g5
sg7
g5
sg8
g5
sg9
g5
ssS'BADUM JAMES P'
p230
(dp231
g3
I00
sg4
g5
sg6
g5
sg7
I257817
sg8
g5
sg9
I257817
ssS'HUGHES JAMES A'
p232
(dp233
g3
I00
sg4
g5
sg6
g5
sg7
I1118394
sg8
g5
sg9
I754966
ssS'REYNOLDS LAWRENCE'
p234
(dp235
g3
I00
sg4
I-200000
sg6
I100000
sg7
I4221891
sg8
I76399
sg9
I4160672
ssS'DIMICHELE RICHARD G'
p236
(dp237
g3
I00
sg4
g5
sg6
I1000000
sg7
I8317782
sg8
I262788
sg9
I8191755
ssS'BHATNAGAR SANJAY'
p238
(dp239
g3
I00
sg4
g5
sg6
g5
sS'total_stock_value'
p240
S'NaN'
p241
sg8
g5
sg9
I2604490
ssS'CARTER REBECCA C'
p242
(dp243
g3
I00
sg4
I-159792
sg6
I300000
sg7
g5
sg8
I261809
sg9
g5
ssS'BUCHANAN HAROLD G'
p244
(dp245
g3
I00
sg4
g5
sg6
I500000
sg7
I1014505
sg8
I248017
sg9
I825464
ssS'YEAP SOON'
p246
(dp247
g3
I00
sg4
g5
sg6
g5
sg7
I192758
sg8
g5
sg9
I192758
ssS'MURRAY JULIA H'
p248
(dp249
g3
I00
sg4
g5
sg6
I400000
sg7
I597461
sg8
I229284
sg9
I400478
ssS'GARLAND C KEVIN'
p250
(dp251
g3
I00
sg4
g5
sg6
I850000
sg7
I896153
sg8
I231946
sg9
I636246
ssS'DODSON KEITH'
p252
(dp253
g3
I00
sg4
g5
sg6
I70000
sg7
g5
sg8
I221003
sg9
g5
ssS'YEAGER F SCOTT'
p254
(dp255
g3
I01
sg4
g5
sg6
g5
sg7
I11884758
sg8
I158403
sg9
I8308552
ssS'HIRKO JOSEPH'
p256
(dp257
g3
I01
sg4
g5
sg6
g5
sg7
I30766064
sg8
g5
sg9
I30766064
ssS'DIETRICH JANET R'
p258
(dp259
g3
I00
sg4
g5
sg6
I600000
sg7
I1865087
sg8
I250100
sg9
I1550019
ssS'DERRICK JR. JAMES V'
p260
(dp261
g3
I00
sg4
I-1284000
sg6
I800000
sg7
I8831913
sg8
I492375
sg9
I8831913
ssS'FREVERT MARK A'
p262
(dp263
g3
I00
sg4
I-3367011
sg6
I2000000
sg7
I14622185
sg8
I1060932
sg9
I10433518
ssS'PAI LOU L'
p264
(dp265
g3
I00
sg4
g5
sg6
I1000000
sg7
I23817930
sg8
I261879
sg9
I15364167
ssS'BAY FRANKLIN R'
p266
(dp267
g3
I00
sg4
I-201641
sg6
I400000
sg7
I63014
sg8
I239671
sg9
g5
ssS'HAYSLETT RODERICK J'
p268
(dp269
g3
I00
sg4
g5
sg6
g5
sg7
I346663
sg8
g5
sg9
g5
ssS'FUGH JOHN L'
p270
(dp271
g3
I00
sg4
g5
sg6
g5
sg7
I176378
sg8
g5
sg9
I176378
ssS'FALLON JAMES B'
p272
(dp273
g3
I00
sg4
g5
sg6
I2500000
sg7
I2332399
sg8
I304588
sg9
I940257
ssS'KOENIG MARK E'
p274
(dp275
g3
I01
sg4
g5
sg6
I700000
sg7
I1920055
sg8
I309946
sg9
I671737
ssS'SAVAGE FRANK'
p276
(dp277
g3
I00
sg4
I-121284
sg6
g5
sg7
g5
sg8
g5
sg9
g5
ssS'IZZO LAWRENCE L'
p278
(dp279
g3
I00
sg4
g5
sg6
g5
sg7
I5819980
sg8
I85274
sg9
I2165172
ssS'TILNEY ELIZABETH A'
p280
(dp281
g3
I00
sg4
I-575000
sg6
I300000
sg7
I1168042
sg8
I247338
sg9
I591250
ssS'MARTIN AMANDA K'
p282
(dp283
g3
I00
sg4
g5
sg6
g5
sg7
I2070306
sg8
I349487
sg9
I2070306
ssS'BUY RICHARD B'
p284
(dp285
g3
I00
sg4
I-694862
sg6
I900000
sg7
I3444470
sg8
I330546
sg9
I2542813
ssS'GRAMM WENDY L'
p286
(dp287
g3
I00
sg4
g5
sg6
g5
sg7
g5
sg8
g5
sg9
g5
ssS'CAUSEY RICHARD A'
p288
(dp289
g3
I01
sg4
I-235000
sg6
I1000000
sg7
I2502063
sg8
I415189
sg9
g5
ssS'TAYLOR MITCHELL S'
p290
(dp291
g3
I00
sg4
g5
sg6
I600000
sg7
I3745048
sg8
I265214
sg9
I3181250
ssS'DONAHUE JR JEFFREY M'
p292
(dp293
g3
I00
sg4
I-300000
sg6
I800000
sg7
I1080988
sg8
I278601
sg9
I765920
ssS'GLISAN JR BEN F'
p294
(dp295
g3
I01
sg4
g5
sg6
I600000
sg7
I778546
sg8
I274975
sg9
I384728
ss.