(dp0
S'METTS MARK'
p1
(dp2
S'from_poi_perc'
p3
F0.0
sS'poi'
p4
I00
sS'deferred_income'
p5
S'NaN'
p6
sS'long_term_incentive'
p7
g6
sS'shared_receipt_with_poi'
p8
I702
sS'bonus'
p9
I600000
sS'total_stock_value'
p10
I585062
sS'restricted_stock'
p11
I585062
sS'salary'
p12
I365788
sS'total_payments'
p13
I1061827
sS'exercised_stock_options'
p14
g6
ssS'BAXTER JOHN C'
p15
(dp16
g3
F0.0
sg4
I00
sg5
I-1386055
sg7
I1586055
sg8
g6
sg9
I1200000
sg10
I10623258
sg11
I3942714
sg12
I267102
sg13
I5634343
sg14
I6680544
ssS'ELLIOTT STEVEN'
p17
(dp18
g3
F0.0
sg4
I00
sg5
I-400729
sg7
g6
sg8
g6
sg9
I350000
sg10
I6678735
sg11
I1788391
sg12
I170941
sg13
I211725
sg14
I4890344
ssS'CORDES WILLIAM R'
p19
(dp20
g3
F0.0
sg4
I00
sg5
g6
sg7
g6
sg8
I58
sg9
g6
sg10
I1038185
sg11
I386335
sg12
g6
sg13
g6
sg14
I651850
ssS'HANNON KEVIN P'
p21
(dp22
g3
F0.0
sg4
I01
sg5
I-3117011
sg7
I1617011
sg8
I1035
sg9
I1500000
sg10
I6391065
sg11
I853064
sg12
I243293
sg13
I288682
sg14
I5538001
ssS'MORDAUNT KRISTINA M'
p23
(dp24
g3
F0.0
sg4
I00
sg5
g6
sg7
g6
sg8
g6
sg9
I325000
sg10
I208510
sg11
I208510
sg12
I267093
sg13
I628522
sg14
g6
ssS'MEYER ROCKFORD G'
p25
(dp26
g3
F0.0
sg4
I00
sg5
g6
sg7
g6
sg8
I22
sg9
g6
sg10
I955873
sg11
I462384
sg12
g6
sg13
I1848227
sg14
I493489
ssS'MCMAHON JEFFREY'
p27
(dp28
g3
F0.0
sg4
I00
sg5
g6
sg7
I694862
sg8
I2228
sg9
I2600000
sg10
I1662855
sg11
I558801
sg12
I370448
sg13
I4099771
sg14
I1104054
ssS'HORTON STANLEY C'
p29
(dp30
g3
F0.0
sg4
I00
sg5
g6
sg7
g6
sg8
I1074
sg9
g6
sg10
I7256648
sg11
I2046079
sg12
g6
sg13
I3131860
sg14
I5210569
ssS'PIPER GREGORY F'
p31
(dp32
g3
F0.0
sg4
I00
sg5
I-33333
sg7
g6
sg8
I742
sg9
I400000
sg10
I880290
sg11
I409554
sg12
I197091
sg13
I1737629
sg14
I880290
ssS'HUMPHREY GENE E'
p33
(dp34
g3
F0.0
sg4
I00
sg5
g6
sg7
g6
sg8
I119
sg9
g6
sg10
I2282768
sg11
g6
sg12
I130724
sg13
I3100224
sg14
I2282768
ssS'UMANOFF ADAM S'
p35
(dp36
g3
F0.0
sg4
I00
sg5
g6
sg7
g6
sg8
I41
sg9
I788750
sg10
g6
sg11
g6
sg12
I288589
sg13
I1130461
sg14
g6
ssS'BLACHMAN JEREMY M'
p37
(dp38
g3
F0.0
sg4
I00
sg5
g6
sg7
I831809
sg8
I2326
sg9
I850000
sg10
I954354
sg11
I189041
sg12
I248546
sg13
I2014835
sg14
I765313
ssS'SUNDE MARTIN'
p39
(dp40
g3
F0.0
sg4
I00
sg5
g6
sg7
I476451
sg8
I2565
sg9
I700000
sg10
I698920
sg11
I698920
sg12
I257486
sg13
I1545059
sg14
g6
ssS'GIBBS DANA R'
p41
(dp42
g3
F0.0
sg4
I00
sg5
g6
sg7
I461912
sg8
I23
sg9
g6
sg10
I2218275
sg11
g6
sg12
g6
sg13
I966522
sg14
I2218275
ssS'LOWRY CHARLES P'
p43
(dp44
g3
F0.0
sg4
I00
sg5
g6
sg7
g6
sg8
g6
sg9
g6
sg10
I372205
sg11
I153686
sg12
g6
sg13
g6
sg14
I372205
ssS'COLWELL WESLEY'
p45
(dp46
g3
F0.0
sg4
I01
sg5
I-144062
sg7
g6
sg8
I1132
sg9
I1200000
sg10
I698242
sg11
I698242
sg12
I288542
sg13
I1490344
sg14
g6
ssS'MULLER MARK S'
p47
(dp48
g3
F0.0
sg4
I00
sg5
I-719000
sg7
I1725545
sg8
I114
sg9
I1100000
sg10
I1416848
sg11
I360528
sg12
I251654
sg13
I3202070
sg14
I1056320
ssS'JACKSON CHARLENE R'
p49
(dp50
g3
F0.0
sg4
I00
sg5
g6
sg7
g6
sg8
I117
sg9
I250000
sg10
I725735
sg11
I540672
sg12
I288558
sg13
I551174
sg14
I185063
ssS'WESTFAHL RICHARD K'
p51
(dp52
g3
F0.0
sg4
I00
sg5
I-10800
sg7
I256191
sg8
g6
sg9
g6
sg10
I384930
sg11
I384930
sg12
I63744
sg13
I762135
sg14
g6
ssS'WALTERS GARETH W'
p53
(dp54
g3
F0.0
sg4
I00
sg5
g6
sg7
g6
sg8
g6
sg9
g6
sg10
I1030329
sg11
g6
sg12
g6
sg13
I87410
sg14
I1030329
ssS'WALLS JR ROBERT H'
p55
(dp56
g3
F0.0
sg4
I00
sg5
g6
sg7
I540751
sg8
I215
sg9
I850000
sg10
I5898997
sg11
I1552453
sg12
I357091
sg13
I1798780
sg14
I4346544
ssS'KITCHEN LOUISE'
p57
(dp58
g3
F0.0
sg4
I00
sg5
g6
sg7
g6
sg8
I3669
sg9
I3100000
sg10
I547143
sg11
I466101
sg12
I271442
sg13
I3471141
sg14
I81042
ssS'CHAN RONNIE'
p59
(dp60
g3
F0.0
sg4
I00
sg5
I-98784
sg7
g6
sg8
g6
sg9
g6
sg10
g6
sg11
I32460
sg12
g6
sg13
g6
sg14
g6
ssS'BELFER ROBERT'
p61
(dp62
g3
F0.0
sg4
I00
sg5
g6
sg7
g6
sg8
g6
sg9
g6
sg10
I-44093
sg11
g6
sg12
g6
sg13
I102500
sg14
I3285
ssS'SHANKMAN JEFFREY A'
p63
(dp64
g3
F0.0
sg4
I00
sg5
g6
sg7
I554422
sg8
I1730
sg9
I2000000
sg10
I2072035
sg11
I630137
sg12
I304110
sg13
I3038702
sg14
I1441898
ssS'WODRASKA JOHN'
p65
(dp66
g3
F0.0
sg4
I00
sg5
g6
sg7
g6
sg8
g6
sg9
g6
sg10
g6
sg11
g6
sg12
g6
sg13
I189583
sg14
g6
ssS'BERGSIEKER RICHARD P'
p67
(dp68
g3
F0.0
sg4
I00
sg5
I-485813
sg7
I180250
sg8
I233
sg9
I250000
sg10
I659249
sg11
I659249
sg12
I187922
sg13
I618850
sg14
g6
ssS'URQUHART JOHN A'
p69
(dp70
g3
F0.0
sg4
I00
sg5
I-36666
sg7
g6
sg8
g6
sg9
g6
sg10
g6
sg11
g6
sg12
g6
sg13
I228656
sg14
g6
ssS'BIBI PHILIPPE A'
p71
(dp72
g3
F0.0
sg4
I00
sg5
g6
sg7
I369721
sg8
I1336
sg9
I1000000
sg10
I1843816
sg11
I378082
sg12
I213625
sg13
I2047593
sg14
I1465734
ssS'RIEKER PAULA H'
p73
(dp74
g3
F0.0
sg4
I01
sg5
I-100000
sg7
g6
sg8
I1258
sg9
I700000
sg10
I1918887
sg11
I283649
sg12
I249201
sg13
I1099100
sg14
I1635238
ssS'WHALEY DAVID A'
p75
(dp76
g3
F0.0
sg4
I00
sg5
g6
sg7
g6
sg8
g6
sg9
g6
sg10
I98718
sg11
g6
sg12
g6
sg13
g6
sg14
I98718
ssS'BECK SALLY W'
p77
(dp78
g3
F0.0
sg4
I00
sg5
g6
sg7
g6
sg8
I2639
sg9
I700000
sg10
I126027
sg11
I126027
sg12
I231330
sg13
I969068
sg14
g6
ssS'HAUG DAVID L'
p79
(dp80
g3
F0.0
sg4
I00
sg5
g6
sg7
g6
sg8
I471
sg9
g6
sg10
I2217299
sg11
I2217299
sg12
g6
sg13
I475
sg14
g6
ssS'ECHOLS JOHN B'
p81
(dp82
g3
F0.0
sg4
I00
sg5
g6
sg7
I2234774
sg8
g6
sg9
I200000
sg10
I1008941
sg11
I407503
sg12
I182245
sg13
I2692324
sg14
I601438
ssS'MENDELSOHN JOHN'
p83
(dp84
g3
F0.0
sg4
I00
sg5
I-103750
sg7
g6
sg8
g6
sg9
g6
sg10
g6
sg11
g6
sg12
g6
sg13
I148
sg14
g6
ssS'HICKERSON GARY J'
p85
(dp86
g3
F0.0
sg4
I00
sg5
g6
sg7
I69223
sg8
I900
sg9
I1700000
sg10
I441096
sg11
I441096
sg12
I211788
sg13
I2081796
sg14
g6
ssS'CLINE KENNETH W'
p87
(dp88
g3
F0.0
sg4
I00
sg5
g6
sg7
g6
sg8
g6
sg9
g6
sg10
I189518
sg11
I662086
sg12
g6
sg13
g6
sg14
g6
ssS'LEWIS RICHARD'
p89
(dp90
g3
F0.0
sg4
I00
sg5
g6
sg7
g6
sg8
I739
sg9
g6
sg10
I850477
sg11
g6
sg12
g6
sg13
g6
sg14
I850477
ssS'HAYES ROBERT E'
p91
(dp92
g3
F0.0
sg4
I00
sg5
g6
sg7
g6
sg8
I50
sg9
g6
sg10
I151418
sg11
I151418
sg12
g6
sg13
I7961
sg14
g6
ssS'MCCARTY DANNY J'
p93
(dp94
g3
F0.0
sg4
I00
sg5
g6
sg7
g6
sg8
I508
sg9
g6
sg10
I758931
sg11
I94556
sg12
g6
sg13
g6
sg14
I664375
ssS'KOPPER MICHAEL J'
p95
(dp96
g3
F0.0
sg4
I01
sg5
g6
sg7
I602671
sg8
g6
sg9
I800000
sg10
I985032
sg11
I985032
sg12
I224305
sg13
I2652612
sg14
g6
ssS'LEFF DANIEL P'
p97
(dp98
g3
F0.0
sg4
I00
sg5
g6
sg7
I1387399
sg8
I2672
sg9
I1000000
sg10
I360528
sg11
I360528
sg12
I273746
sg13
I2664228
sg14
g6
ssS'LAVORATO JOHN J'
p99
(dp100
g3
F0.0
sg4
I00
sg5
g6
sg7
I2035380
sg8
I3962
sg9
I8000000
sg10
I5167144
sg11
I1008149
sg12
I339288
sg13
I10425757
sg14
I4158995
ssS'BERBERIAN DAVID'
p101
(dp102
g3
F0.0
sg4
I00
sg5
g6
sg7
g6
sg8
g6
sg9
g6
sg10
I2493616
sg11
I869220
sg12
I216582
sg13
I228474
sg14
I1624396
ssS'DETMERING TIMOTHY J'
p103
(dp104
g3
F0.0
sg4
I00
sg5
I-775241
sg7
I415657
sg8
g6
sg9
I425000
sg10
I2027865
sg11
I315068
sg12
I210500
sg13
I1204583
sg14
I2027865
ssS'WAKEHAM JOHN'
p105
(dp106
g3
F0.0
sg4
I00
sg5
g6
sg7
g6
sg8
g6
sg9
g6
sg10
g6
sg11
g6
sg12
g6
sg13
I213071
sg14
g6
ssS'POWERS WILLIAM'
p107
(dp108
g3
F0.0
sg4
I00
sg5
I-17500
sg7
g6
sg8
I12
sg9
g6
sg10
g6
sg11
g6
sg12
g6
sg13
g6
sg14
g6
ssS'GOLD JOSEPH'
p109
(dp110
g3
F0.0
sg4
I00
sg5
g6
sg7
I304805
sg8
g6
sg9
I750000
sg10
I877611
sg11
I441096
sg12
I272880
sg13
I2146973
sg14
I436515
ssS'BANNANTINE JAMES M'
p111
(dp112
g3
F0.0
sg4
I00
sg5
I-5104
sg7
g6
sg8
I465
sg9
g6
sg10
I5243487
sg11
I1757552
sg12
I477
sg13
I916197
sg14
I4046157
ssS'DUNCAN JOHN H'
p113
(dp114
g3
F0.0
sg4
I00
sg5
I-25000
sg7
g6
sg8
g6
sg9
g6
sg10
I371750
sg11
g6
sg12
g6
sg13
I77492
sg14
I371750
ssS'SHAPIRO RICHARD S'
p115
(dp116
g3
F0.0
sg4
I00
sg5
g6
sg7
g6
sg8
I4527
sg9
I650000
sg10
I987001
sg11
I379164
sg12
I269076
sg13
I1057548
sg14
I607837
ssS'SHERRIFF JOHN R'
p117
(dp118
g3
F0.0
sg4
I00
sg5
g6
sg7
I554422
sg8
I2103
sg9
I1500000
sg10
I3128982
sg11
I1293424
sg12
I428780
sg13
I4335388
sg14
I1835558
ssS'SHELBY REX'
p119
(dp120
g3
F0.0
sg4
I01
sg5
I-4167
sg7
g6
sg8
I91
sg9
I200000
sg10
I2493616
sg11
I869220
sg12
I211844
sg13
I2003885
sg14
I1624396
ssS'LEMAISTRE CHARLES'
p121
(dp122
g3
F0.0
sg4
I00
sg5
I-25000
sg7
g6
sg8
g6
sg9
g6
sg10
I412878
sg11
g6
sg12
g6
sg13
I87492
sg14
I412878
ssS'DEFFNER JOSEPH M'
p123
(dp124
g3
F0.0
sg4
I00
sg5
g6
sg7
I335349
sg8
I552
sg9
I600000
sg10
I159211
sg11
I141833
sg12
I206121
sg13
I1208649
sg14
I17378
ssS'KISHKILL JOSEPH G'
p125
(dp126
g3
F0.0
sg4
I00
sg5
I-51042
sg7
g6
sg8
g6
sg9
g6
sg10
I1034346
sg11
I1034346
sg12
I174246
sg13
I704896
sg14
g6
ssS'WHALLEY LAWRENCE G'
p127
(dp128
g3
F0.0
sg4
I00
sg5
g6
sg7
I808346
sg8
I3920
sg9
I3000000
sg10
I6079137
sg11
I2796177
sg12
I510364
sg13
I4677574
sg14
I3282960
ssS'MCCONNELL MICHAEL S'
p129
(dp130
g3
F0.0
sg4
I00
sg5
g6
sg7
I554422
sg8
I2189
sg9
I1100000
sg10
I3101279
sg11
I1478269
sg12
I365038
sg13
I2101364
sg14
I1623010
ssS'PIRO JIM'
p131
(dp132
g3
F0.0
sg4
I00
sg5
g6
sg7
g6
sg8
I3
sg9
g6
sg10
I47304
sg11
I47304
sg12
g6
sg13
g6
sg14
g6
ssS'DELAINEY DAVID W'
p133
(dp134
g3
F0.0
sg4
I01
sg5
g6
sg7
I1294981
sg8
I2097
sg9
I3000000
sg10
I3614261
sg11
I1323148
sg12
I365163
sg13
I4747979
sg14
I2291113
ssS'SULLIVAN-SHAKLOVITZ COLLEEN'
p135
(dp136
g3
F0.0
sg4
I00
sg5
g6
sg7
I554422
sg8
g6
sg9
I100000
sg10
I1362375
sg11
g6
sg12
I162779
sg13
I999356
sg14
I1362375
ssS'WROBEL BRUCE'
p137
(dp138
g3
F0.0
sg4
I00
sg5
g6
sg7
g6
sg8
g6
sg9
g6
sg10
I139130
sg11
g6
sg12
g6
sg13
g6
sg14
I139130
ssS'LINDHOLM TOD A'
p139
(dp140
g3
F0.0
sg4
I00
sg5
g6
sg7
I175000
sg8
g6
sg9
I200000
sg10
I3064208
sg11
I514847
sg12
I236457
sg13
I875889
sg14
I2549361
ssS'MEYER JEROME J'
p141
(dp142
g3
F0.0
sg4
I00
sg5
I-38346
sg7
g6
sg8
g6
sg9
g6
sg10
g6
sg11
g6
sg12
g6
sg13
I2151
sg14
g6
ssS'LAY KENNETH L'
p143
(dp144
g3
F662804.8780487805
sg4
I01
sg5
I-300000
sg7
I3600000
sg8
I2411
sg9
I7000000
sg10
I49110078
sg11
I14761694
sg12
I1072321
sg13
I103559793
sg14
I34348384
ssS'BUTTS ROBERT H'
p145
(dp146
g3
F0.0
sg4
I00
sg5
I-75000
sg7
I175000
sg8
g6
sg9
I750000
sg10
I417619
sg11
I417619
sg12
I261516
sg13
I1271582
sg14
g6
ssS'OLSON CINDY K'
p147
(dp148
g3
F0.0
sg4
I00
sg5
g6
sg7
I100000
sg8
I856
sg9
I750000
sg10
I2606763
sg11
I969729
sg12
I329078
sg13
I1321557
sg14
I1637034
ssS'MCDONALD REBECCA'
p149
(dp150
g3
F0.0
sg4
I00
sg5
g6
sg7
g6
sg8
I720
sg9
g6
sg10
I1691366
sg11
I934065
sg12
g6
sg13
g6
sg14
I757301
ssS'CUMBERLAND MICHAEL S'
p151
(dp152
g3
F0.0
sg4
I00
sg5
g6
sg7
I275000
sg8
g6
sg9
I325000
sg10
I207940
sg11
I207940
sg12
I184899
sg13
I807956
sg14
g6
ssS'GAHN ROBERT S'
p153
(dp154
g3
F0.0
sg4
I00
sg5
I-1042
sg7
g6
sg8
g6
sg9
I509870
sg10
I318607
sg11
I235370
sg12
I192008
sg13
I900585
sg14
I83237
ssS'MCCLELLAN GEORGE'
p155
(dp156
g3
F0.0
sg4
I00
sg5
I-125000
sg7
g6
sg8
I1469
sg9
I900000
sg10
I947861
sg11
I441096
sg12
I263413
sg13
I1318763
sg14
I506765
ssS'HERMANN ROBERT J'
p157
(dp158
g3
F0.0
sg4
I00
sg5
I-280000
sg7
I150000
sg8
g6
sg9
I700000
sg10
I668132
sg11
I480632
sg12
I262663
sg13
I1297461
sg14
I187500
ssS'SCRIMSHAW MATTHEW'
p159
(dp160
g3
F0.0
sg4
I00
sg5
g6
sg7
g6
sg8
g6
sg9
g6
sg10
I759557
sg11
g6
sg12
g6
sg13
g6
sg14
I759557
ssS'GATHMANN WILLIAM D'
p161
(dp162
g3
F0.0
sg4
I00
sg5
g6
sg7
g6
sg8
g6
sg9
g6
sg10
I1945360
sg11
I264013
sg12
g6
sg13
g6
sg14
I1753766
ssS'HAEDICKE MARK E'
p163
(dp164
g3
F0.0
sg4
I00
sg5
I-934484
sg7
I983346
sg8
I1847
sg9
I1150000
sg10
I803094
sg11
I524169
sg12
I374125
sg13
I3859065
sg14
I608750
ssS'BOWEN JR RAYMOND M'
p165
(dp166
g3
F0.0
sg4
I01
sg5
I-833
sg7
I974293
sg8
I1593
sg9
I1350000
sg10
I252055
sg11
I252055
sg12
I278601
sg13
I2669589
sg14
g6
ssS'GILLIS JOHN'
p167
(dp168
g3
F0.0
sg4
I00
sg5
g6
sg7
g6
sg8
g6
sg9
g6
sg10
I85641
sg11
I75838
sg12
g6
sg13
g6
sg14
I9803
ssS'FITZGERALD JAY L'
p169
(dp170
g3
F0.0
sg4
I00
sg5
g6
sg7
I556416
sg8
I723
sg9
I350000
sg10
I1621236
sg11
I956775
sg12
I199157
sg13
I1414857
sg14
I664461
ssS'MORAN MICHAEL P'
p171
(dp172
g3
F0.0
sg4
I00
sg5
g6
sg7
g6
sg8
I127
sg9
g6
sg10
I221141
sg11
I161602
sg12
g6
sg13
g6
sg14
I59539
ssS'REDMOND BRIAN L'
p173
(dp174
g3
F0.0
sg4
I00
sg5
g6
sg7
g6
sg8
I1063
sg9
g6
sg10
I7890324
sg11
I381285
sg12
I96840
sg13
I111529
sg14
I7509039
ssS'BAZELIDES PHILIP J'
p175
(dp176
g3
F0.0
sg4
I00
sg5
g6
sg7
I93750
sg8
g6
sg9
g6
sg10
I1599641
sg11
g6
sg12
I80818
sg13
I860136
sg14
I1599641
ssS'BELDEN TIMOTHY N'
p177
(dp178
g3
F0.0
sg4
I01
sg5
I-2334434
sg7
g6
sg8
I5521
sg9
I5249999
sg10
I1110705
sg11
I157569
sg12
I213999
sg13
I5501630
sg14
I953136
ssS'DURAN WILLIAM D'
p179
(dp180
g3
F0.0
sg4
I00
sg5
g6
sg7
I1105218
sg8
I599
sg9
I750000
sg10
I1640910
sg11
I189041
sg12
I210692
sg13
I2093263
sg14
I1451869
ssS'THORN TERENCE H'
p181
(dp182
g3
F0.0
sg4
I00
sg5
g6
sg7
I200000
sg8
I73
sg9
g6
sg10
I4817796
sg11
I365320
sg12
I222093
sg13
I911453
sg14
I4452476
ssS'FASTOW ANDREW S'
p183
(dp184
g3
F0.0
sg4
I01
sg5
I-1386055
sg7
I1736055
sg8
g6
sg9
I1300000
sg10
I1794412
sg11
I1794412
sg12
I440698
sg13
I2424083
sg14
g6
ssS'FOY JOE'
p185
(dp186
g3
F0.0
sg4
I00
sg5
g6
sg7
g6
sg8
I2
sg9
g6
sg10
I343434
sg11
g6
sg12
g6
sg13
I181755
sg14
I343434
ssS'CALGER CHRISTOPHER F'
p187
(dp188
g3
F0.0
sg4
I01
sg5
I-262500
sg7
I375304
sg8
I2188
sg9
I1250000
sg10
I126027
sg11
I126027
sg12
I240189
sg13
I1639297
sg14
g6
ssS'RICE KENNETH D'
p189
(dp190
g3
F0.0
sg4
I01
sg5
I-3504386
sg7
I1617011
sg8
I864
sg9
I1750000
sg10
I22542539
sg11
I2748364
sg12
I420636
sg13
I505050
sg14
I19794175
ssS'KAMINSKI WINCENTY J'
p191
(dp192
g3
F0.0
sg4
I00
sg5
g6
sg7
I323466
sg8
I583
sg9
I400000
sg10
I976037
sg11
I126027
sg12
I275101
sg13
I1086821
sg14
I850010
ssS'COX DAVID'
p193
(dp194
g3
F0.0
sg4
I00
sg5
I-41250
sg7
g6
sg8
I71
sg9
I800000
sg10
I495633
sg11
I378082
sg12
I314288
sg13
I1101393
sg14
I117551
ssS'OVERDYKE JR JERE C'
p195
(dp196
g3
F0.0
sg4
I00
sg5
g6
sg7
I135836
sg8
g6
sg9
g6
sg10
I7307594
sg11
I2041016
sg12
I94941
sg13
I249787
sg14
I5266578
ssS'PEREIRA PAULO V. FERRAZ'
p197
(dp198
g3
F0.0
sg4
I00
sg5
I-101250
sg7
g6
sg8
g6
sg9
g6
sg10
g6
sg11
g6
sg12
g6
sg13
I27942
sg14
g6
ssS'STABLER FRANK'
p199
(dp200
g3
F0.0
sg4
I00
sg5
g6
sg7
g6
sg8
g6
sg9
I500000
sg10
I511734
sg11
I511734
sg12
I239502
sg13
I1112087
sg14
g6
ssS'SKILLING JEFFREY K'
p201
(dp202
g3
F0.0
sg4
I01
sg5
g6
sg7
I1920000
sg8
I2042
sg9
I5600000
sg10
I26093672
sg11
I6843672
sg12
I1111258
sg13
I8682716
sg14
I19250000
ssS'BLAKE JR. NORMAN P'
p203
(dp204
g3
F0.0
sg4
I00
sg5
I-113784
sg7
g6
sg8
g6
sg9
g6
sg10
g6
sg11
g6
sg12
g6
sg13
I1279
sg14
g6
ssS'SHERRICK JEFFREY B'
p205
(dp206
g3
F0.0
sg4
I00
sg5
g6
sg7
g6
sg8
I583
sg9
g6
sg10
I1832468
sg11
I405999
sg12
g6
sg13
g6
sg14
I1426469
ssS'PRENTICE JAMES'
p207
(dp208
g3
F0.0
sg4
I00
sg5
g6
sg7
g6
sg8
g6
sg9
g6
sg10
I1095040
sg11
I208809
sg12
g6
sg13
I564348
sg14
I886231
ssS'GRAY RODNEY'
p209
(dp210
g3
F0.0
sg4
I00
sg5
g6
sg7
I365625
sg8
g6
sg9
g6
sg10
g6
sg11
g6
sg12
I6615
sg13
I1146658
sg14
g6
ssS'PICKERING MARK R'
p211
(dp212
g3
F0.0
sg4
I00
sg5
g6
sg7
g6
sg8
I728
sg9
I300000
sg10
I28798
sg11
g6
sg12
I655037
sg13
I1386690
sg14
I28798
ssS'NOLES JAMES L'
p213
(dp214
g3
F0.0
sg4
I00
sg5
g6
sg7
g6
sg8
g6
sg9
g6
sg10
I368705
sg11
I463261
sg12
g6
sg13
I774401
sg14
g6
ssS'KEAN STEVEN J'
p215
(dp216
g3
F0.0
sg4
I00
sg5
g6
sg7
I300000
sg8
I3639
sg9
I1000000
sg10
I6153642
sg11
I4131594
sg12
I404338
sg13
I1747522
sg14
I2022048
ssS'FOWLER PEGGY'
p217
(dp218
g3
F0.0
sg4
I00
sg5
g6
sg7
g6
sg8
I10
sg9
g6
sg10
I1884748
sg11
I560170
sg12
g6
sg13
g6
sg14
I1324578
ssS'WASAFF GEORGE'
p219
(dp220
g3
F0.0
sg4
I00
sg5
I-583325
sg7
I200000
sg8
I337
sg9
I325000
sg10
I2056427
sg11
I388167
sg12
I259996
sg13
I1034395
sg14
I1668260
ssS'WHITE JR THOMAS E'
p221
(dp222
g3
F0.0
sg4
I00
sg5
g6
sg7
g6
sg8
g6
sg9
I450000
sg10
I15144123
sg11
I13847074
sg12
I317543
sg13
I1934359
sg14
I1297049
ssS'CHRISTODOULOU DIOMEDES'
p223
(dp224
g3
F0.0
sg4
I00
sg5
g6
sg7
g6
sg8
g6
sg9
g6
sg10
I6077885
sg11
I950730
sg12
g6
sg13
g6
sg14
I5127155
ssS'ALLEN PHILLIP K'
p225
(dp226
g3
F0.0
sg4
I00
sg5
I-3081055
sg7
I304805
sg8
I1407
sg9
I4175000
sg10
I1729541
sg11
I126027
sg12
I201955
sg13
I4484442
sg14
I1729541
ssS'SHARP VICTORIA T'
p227
(dp228
g3
F0.0
sg4
I00
sg5
g6
sg7
I422158
sg8
I2477
sg9
I600000
sg10
I494136
sg11
I213063
sg12
I248146
sg13
I1576511
sg14
I281073
ssS'JAEDICKE ROBERT'
p229
(dp230
g3
F0.0
sg4
I00
sg5
I-25000
sg7
g6
sg8
g6
sg9
g6
sg10
I431750
sg11
I44093
sg12
g6
sg13
I83750
sg14
I431750
ssS'WINOKUR JR. HERBERT S'
p231
(dp232
g3
F0.0
sg4
I00
sg5
I-25000
sg7
g6
sg8
g6
sg9
g6
sg10
g6
sg11
g6
sg12
g6
sg13
I84992
sg14
g6
ssS'BROWN MICHAEL'
p233
(dp234
g3
F0.0
sg4
I00
sg5
g6
sg7
g6
sg8
I761
sg9
g6
sg10
g6
sg11
g6
sg12
g6
sg13
I49288
sg14
g6
ssS'BADUM JAMES P'
p235
(dp236
g3
F0.0
sg4
I00
sg5
g6
sg7
g6
sg8
g6
sg9
g6
sg10
I257817
sg11
g6
sg12
g6
sg13
I182466
sg14
I257817
ssS'HUGHES JAMES A'
p237
(dp238
g3
F0.0
sg4
I00
sg5
g6
sg7
g6
sg8
I589
sg9
g6
sg10
I1118394
sg11
I363428
sg12
g6
sg13
g6
sg14
I754966
ssS'REYNOLDS LAWRENCE'
p239
(dp240
g3
F0.0
sg4
I00
sg5
I-200000
sg7
I156250
sg8
g6
sg9
I100000
sg10
I4221891
sg11
I201483
sg12
I76399
sg13
I394475
sg14
I4160672
ssS'DIMICHELE RICHARD G'
p241
(dp242
g3
F0.0
sg4
I00
sg5
g6
sg7
I694862
sg8
g6
sg9
I1000000
sg10
I8317782
sg11
I126027
sg12
I262788
sg13
I2368151
sg14
I8191755
ssS'BHATNAGAR SANJAY'
p243
(dp244
g3
F0.0
sg4
I00
sg5
g6
sg7
g6
sg8
I463
sg9
g6
sS'total_stock_value'
p245
S'NaN'
p246
sg11
I-2604490
sg12
g6
sg13
I15456290
sg14
I2604490
ssS'CARTER REBECCA C'
p247
(dp248
g3
F0.0
sg4
I00
sg5
I-159792
sg7
I75000
sg8
I196
sg9
I300000
sg10
g6
sg11
I307301
sg12
I261809
sg13
I477557
sg14
g6
ssS'BUCHANAN HAROLD G'
p249
(dp250
g3
F0.0
sg4
I00
sg5
g6
sg7
I304805
sg8
I23
sg9
I500000
sg10
I1014505
sg11
I189041
sg12
I248017
sg13
I1054637
sg14
I825464
ssS'YEAP SOON'
p251
(dp252
g3
F0.0
sg4
I00
sg5
g6
sg7
g6
sg8
g6
sg9
g6
sg10
I192758
sg11
g6
sg12
g6
sg13
I55097
sg14
I192758
ssS'MURRAY JULIA H'
p253
(dp254
g3
F0.0
sg4
I00
sg5
g6
sg7
I125000
sg8
I395
sg9
I400000
sg10
I597461
sg11
I196983
sg12
I229284
sg13
I812194
sg14
I400478
ssS'GARLAND C KEVIN'
p255
(dp256
g3
F0.0
sg4
I00
sg5
g6
sg7
I375304
sg8
I178
sg9
I850000
sg10
I896153
sg11
I259907
sg12
I231946
sg13
I1566469
sg14
I636246
ssS'DODSON KEITH'
p257
(dp258
g3
F0.0
sg4
I00
sg5
g6
sg7
g6
sg8
I114
sg9
I70000
sg10
g6
sg11
g6
sg12
I221003
sg13
I319941
sg14
g6
ssS'YEAGER F SCOTT'
p259
(dp260
g3
F0.0
sg4
I01
sg5
g6
sg7
g6
sg8
g6
sg9
g6
sg10
I11884758
sg11
I3576206
sg12
I158403
sg13
I360300
sg14
I8308552
ssS'HIRKO JOSEPH'
p261
(dp262
g3
F0.0
sg4
I01
sg5
g6
sg7
g6
sg8
g6
sg9
g6
sg10
I30766064
sg11
g6
sg12
g6
sg13
I91093
sg14
I30766064
ssS'DIETRICH JANET R'
p263
(dp264
g3
F0.0
sg4
I00
sg5
g6
sg7
I556416
sg8
I1902
sg9
I600000
sg10
I1865087
sg11
I315068
sg12
I250100
sg13
I1410464
sg14
I1550019
ssS'DERRICK JR. JAMES V'
p265
(dp266
g3
F0.0
sg4
I00
sg5
I-1284000
sg7
I484000
sg8
I1401
sg9
I800000
sg10
I8831913
sg11
I1787380
sg12
I492375
sg13
I550981
sg14
I8831913
ssS'FREVERT MARK A'
p267
(dp268
g3
F8264.462809917355
sg4
I00
sg5
I-3367011
sg7
I1617011
sg8
I2979
sg9
I2000000
sg10
I14622185
sg11
I4188667
sg12
I1060932
sg13
I17252530
sg14
I10433518
ssS'PAI LOU L'
p269
(dp270
g3
F0.0
sg4
I00
sg5
g6
sg7
g6
sg8
g6
sg9
I1000000
sg10
I23817930
sg11
I8453763
sg12
I261879
sg13
I3123383
sg14
I15364167
ssS'BAY FRANKLIN R'
p271
(dp272
g3
F0.0
sg4
I00
sg5
I-201641
sg7
g6
sg8
g6
sg9
I400000
sg10
I63014
sg11
I145796
sg12
I239671
sg13
I827696
sg14
g6
ssS'HAYSLETT RODERICK J'
p273
(dp274
g3
F0.0
sg4
I00
sg5
g6
sg7
g6
sg8
I571
sg9
g6
sg10
I346663
sg11
I346663
sg12
g6
sg13
g6
sg14
g6
ssS'FUGH JOHN L'
p275
(dp276
g3
F0.0
sg4
I00
sg5
g6
sg7
g6
sg8
g6
sg9
g6
sg10
I176378
sg11
g6
sg12
g6
sg13
I50591
sg14
I176378
ssS'FALLON JAMES B'
p277
(dp278
g3
F0.0
sg4
I00
sg5
g6
sg7
I374347
sg8
I1604
sg9
I2500000
sg10
I2332399
sg11
I1392142
sg12
I304588
sg13
I3676340
sg14
I940257
ssS'KOENIG MARK E'
p279
(dp280
g3
F0.0
sg4
I01
sg5
g6
sg7
I300000
sg8
I2271
sg9
I700000
sg10
I1920055
sg11
I1248318
sg12
I309946
sg13
I1587421
sg14
I671737
ssS'SAVAGE FRANK'
p281
(dp282
g3
F0.0
sg4
I00
sg5
I-121284
sg7
g6
sg8
g6
sg9
g6
sg10
g6
sg11
g6
sg12
g6
sg13
I3750
sg14
g6
ssS'IZZO LAWRENCE L'
p283
(dp284
g3
F0.0
sg4
I00
sg5
g6
sg7
I312500
sg8
I437
sg9
g6
sg10
I5819980
sg11
I3654808
sg12
I85274
sg13
I1979596
sg14
I2165172
ssS'TILNEY ELIZABETH A'
p285
(dp286
g3
F0.0
sg4
I00
sg5
I-575000
sg7
I275000
sg8
I379
sg9
I300000
sg10
I1168042
sg11
I576792
sg12
I247338
sg13
I399393
sg14
I591250
ssS'MARTIN AMANDA K'
p287
(dp288
g3
F0.0
sg4
I00
sg5
g6
sg7
I5145434
sg8
I477
sg9
g6
sg10
I2070306
sg11
g6
sg12
I349487
sg13
I8407016
sg14
I2070306
ssS'BUY RICHARD B'
p289
(dp290
g3
F0.0
sg4
I00
sg5
I-694862
sg7
I769862
sg8
I2333
sg9
I900000
sg10
I3444470
sg11
I901657
sg12
I330546
sg13
I2355702
sg14
I2542813
ssS'GRAMM WENDY L'
p291
(dp292
g3
F0.0
sg4
I00
sg5
g6
sg7
g6
sg8
g6
sg9
g6
sg10
g6
sg11
g6
sg12
g6
sg13
I119292
sg14
g6
ssS'CAUSEY RICHARD A'
p293
(dp294
g3
F0.0
sg4
I01
sg5
I-235000
sg7
I350000
sg8
I1585
sg9
I1000000
sg10
I2502063
sg11
I2502063
sg12
I415189
sg13
I1868758
sg14
g6
ssS'TAYLOR MITCHELL S'
p295
(dp296
g3
F0.0
sg4
I00
sg5
g6
sg7
g6
sg8
I300
sg9
I600000
sg10
I3745048
sg11
I563798
sg12
I265214
sg13
I1092663
sg14
I3181250
ssS'DONAHUE JR JEFFREY M'
p297
(dp298
g3
F0.0
sg4
I00
sg5
I-300000
sg7
g6
sg8
I772
sg9
I800000
sg10
I1080988
sg11
I315068
sg12
I278601
sg13
I875760
sg14
I765920
ssS'GLISAN JR BEN F'
p299
(dp300
g3
F0.0
sg4
I01
sg5
g6
sg7
I71023
sg8
I874
sg9
I600000
sg10
I778546
sg11
I393818
sg12
I274975
sg13
I1272284
sg14
I384728
ss.