(lp0
S'poi'
p1
aS'bonus'
p2
aS'deferred_income'
p3
aS'exercised_stock_options'
p4
aS'long_term_incentive'
p5
aS'restricted_stock'
p6
aS'salary'
p7
aS'shared_receipt_with_poi'
p8
aS'total_payments'
p9
aS'total_stock_value'
p10
aS'from_poi_perc'
p11
a.